; Function Attrs: nofree norecurse nosync nounwind memory(readwrite, argmem: none, inaccessiblemem: none) uwtable
define hidden void @mi_option_set(i32 noundef %0, i64 noundef %1) local_unnamed_addr #4 {
  %3 = icmp ugt i32 %0, 35
  br i1 %3, label %.thread, label %.lr.ph

.lr.ph:                                           ; preds = %2, %.lr.ph.backedge
  %.tr14 = phi i32 [ %.tr14.be, %.lr.ph.backedge ], [ %0, %2 ]
  %4 = zext nneg i32 %.tr14 to i64
  %5 = getelementptr inbounds nuw [36 x %struct.mi_option_desc_s], ptr @options, i64 0, i64 %4
  store i64 %1, ptr %5, align 16, !tbaa !14
  %6 = getelementptr inbounds nuw i8, ptr %5, i64 8
  store i32 2, ptr %6, align 8, !tbaa !8
  %7 = getelementptr inbounds nuw i8, ptr %5, i64 12
  %8 = load i32, ptr %7, align 4, !tbaa !22
  switch i32 %8, label %.thread [
    i32 30, label %9
    i32 31, label %12
  ]

9:                                                ; preds = %.lr.ph
  %10 = load i64, ptr getelementptr inbounds nuw (i8, ptr @options, i64 992), align 16, !tbaa !14
  %11 = icmp slt i64 %10, %1
  br i1 %11, label %.lr.ph.backedge, label %.thread

.lr.ph.backedge:                                  ; preds = %9, %12
  %.tr14.be = phi i32 [ 31, %9 ], [ 30, %12 ]
  br label %.lr.ph

12:                                               ; preds = %.lr.ph
  %13 = load i64, ptr getelementptr inbounds nuw (i8, ptr @options, i64 960), align 16, !tbaa !14
  %14 = icmp sgt i64 %13, %1
  br i1 %14, label %.lr.ph.backedge, label %.thread

.thread:                                          ; preds = %12, %9, %.lr.ph, %2
  ret void
}